(lp0
S'https://d396qusza40orc.cloudfront.net/ntumltwo/lecture_slides/201_handout.pdf'
p1
aS'https://class.coursera.org/ntumltwo-002/lecture/download.mp4?lecture_id=3'
p2
aS'https://class.coursera.org/ntumltwo-002/lecture/download.mp4?lecture_id=5'
p3
aS'https://class.coursera.org/ntumltwo-002/lecture/download.mp4?lecture_id=7'
p4
aS'https://class.coursera.org/ntumltwo-002/lecture/download.mp4?lecture_id=9'
p5
aS'https://class.coursera.org/ntumltwo-002/lecture/download.mp4?lecture_id=11'
p6
aS'https://d396qusza40orc.cloudfront.net/ntumltwo/lecture_slides/202_handout.pdf'
p7
aS'https://class.coursera.org/ntumltwo-002/lecture/download.mp4?lecture_id=13'
p8
aS'https://class.coursera.org/ntumltwo-002/lecture/download.mp4?lecture_id=15'
p9
aS'https://class.coursera.org/ntumltwo-002/lecture/download.mp4?lecture_id=17'
p10
aS'https://class.coursera.org/ntumltwo-002/lecture/download.mp4?lecture_id=19'
p11
aS'https://d396qusza40orc.cloudfront.net/ntumltwo/lecture_slides/203_handout.pdf'
p12
aS'https://class.coursera.org/ntumltwo-002/lecture/download.mp4?lecture_id=21'
p13
aS'https://class.coursera.org/ntumltwo-002/lecture/download.mp4?lecture_id=23'
p14
aS'https://class.coursera.org/ntumltwo-002/lecture/download.mp4?lecture_id=25'
p15
aS'https://class.coursera.org/ntumltwo-002/lecture/download.mp4?lecture_id=27'
p16
aS'https://d396qusza40orc.cloudfront.net/ntumltwo/lecture_slides/204_handout.pdf'
p17
aS'https://class.coursera.org/ntumltwo-002/lecture/download.mp4?lecture_id=29'
p18
aS'https://class.coursera.org/ntumltwo-002/lecture/download.mp4?lecture_id=31'
p19
aS'https://class.coursera.org/ntumltwo-002/lecture/download.mp4?lecture_id=33'
p20
aS'https://class.coursera.org/ntumltwo-002/lecture/download.mp4?lecture_id=37'
p21
aS'https://d396qusza40orc.cloudfront.net/ntumltwo/lecture_slides/205_handout.pdf'
p22
aS'https://class.coursera.org/ntumltwo-002/lecture/download.mp4?lecture_id=41'
p23
aS'https://class.coursera.org/ntumltwo-002/lecture/download.mp4?lecture_id=43'
p24
aS'https://class.coursera.org/ntumltwo-002/lecture/download.mp4?lecture_id=45'
p25
aS'https://class.coursera.org/ntumltwo-002/lecture/download.mp4?lecture_id=47'
p26
aS'https://d396qusza40orc.cloudfront.net/ntumltwo/lecture_slides/206_handout.pdf'
p27
aS'https://class.coursera.org/ntumltwo-002/lecture/download.mp4?lecture_id=49'
p28
aS'https://class.coursera.org/ntumltwo-002/lecture/download.mp4?lecture_id=51'
p29
aS'https://class.coursera.org/ntumltwo-002/lecture/download.mp4?lecture_id=53'
p30
aS'https://class.coursera.org/ntumltwo-002/lecture/download.mp4?lecture_id=55'
p31
aS'https://d396qusza40orc.cloudfront.net/ntumltwo/lecture_slides/207_handout.pdf'
p32
aS'https://class.coursera.org/ntumltwo-002/lecture/download.mp4?lecture_id=57'
p33
aS'https://class.coursera.org/ntumltwo-002/lecture/download.mp4?lecture_id=59'
p34
aS'https://class.coursera.org/ntumltwo-002/lecture/download.mp4?lecture_id=61'
p35
aS'https://class.coursera.org/ntumltwo-002/lecture/download.mp4?lecture_id=63'
p36
aS'https://d396qusza40orc.cloudfront.net/ntumltwo/lecture_slides/208_handout.pdf'
p37
aS'https://class.coursera.org/ntumltwo-002/lecture/download.mp4?lecture_id=67'
p38
aS'https://class.coursera.org/ntumltwo-002/lecture/download.mp4?lecture_id=69'
p39
aS'https://class.coursera.org/ntumltwo-002/lecture/download.mp4?lecture_id=71'
p40
aS'https://class.coursera.org/ntumltwo-002/lecture/download.mp4?lecture_id=73'
p41
aS'https://d396qusza40orc.cloudfront.net/ntumltwo/lecture_slides/209_handout.pdf'
p42
aS'https://class.coursera.org/ntumltwo-002/lecture/download.mp4?lecture_id=75'
p43
aS'https://class.coursera.org/ntumltwo-002/lecture/download.mp4?lecture_id=77'
p44
aS'https://class.coursera.org/ntumltwo-002/lecture/download.mp4?lecture_id=79'
p45
aS'https://class.coursera.org/ntumltwo-002/lecture/download.mp4?lecture_id=81'
p46
aS'https://d396qusza40orc.cloudfront.net/ntumltwo/lecture_slides/210_handout.pdf'
p47
aS'https://class.coursera.org/ntumltwo-002/lecture/download.mp4?lecture_id=83'
p48
aS'https://class.coursera.org/ntumltwo-002/lecture/download.mp4?lecture_id=85'
p49
aS'https://class.coursera.org/ntumltwo-002/lecture/download.mp4?lecture_id=87'
p50
aS'https://class.coursera.org/ntumltwo-002/lecture/download.mp4?lecture_id=89'
p51
aS'https://d396qusza40orc.cloudfront.net/ntumltwo/lecture_slides/211_handout.pdf'
p52
aS'https://class.coursera.org/ntumltwo-002/lecture/download.mp4?lecture_id=91'
p53
aS'https://class.coursera.org/ntumltwo-002/lecture/download.mp4?lecture_id=93'
p54
aS'https://class.coursera.org/ntumltwo-002/lecture/download.mp4?lecture_id=95'
p55
aS'https://class.coursera.org/ntumltwo-002/lecture/download.mp4?lecture_id=97'
p56
aS'https://d396qusza40orc.cloudfront.net/ntumltwo/lecture_slides/212_handout.pdf'
p57
aS'https://class.coursera.org/ntumltwo-002/lecture/download.mp4?lecture_id=99'
p58
aS'https://class.coursera.org/ntumltwo-002/lecture/download.mp4?lecture_id=101'
p59
aS'https://class.coursera.org/ntumltwo-002/lecture/download.mp4?lecture_id=103'
p60
aS'https://class.coursera.org/ntumltwo-002/lecture/download.mp4?lecture_id=105'
p61
aS'https://d396qusza40orc.cloudfront.net/ntumltwo/lecture_slides/213_handout.pdf'
p62
aS'https://class.coursera.org/ntumltwo-002/lecture/download.mp4?lecture_id=107'
p63
aS'https://class.coursera.org/ntumltwo-002/lecture/download.mp4?lecture_id=109'
p64
aS'https://class.coursera.org/ntumltwo-002/lecture/download.mp4?lecture_id=111'
p65
aS'https://class.coursera.org/ntumltwo-002/lecture/download.mp4?lecture_id=113'
p66
aS'https://d396qusza40orc.cloudfront.net/ntumltwo/lecture_slides/214_handout.pdf'
p67
aS'https://class.coursera.org/ntumltwo-002/lecture/download.mp4?lecture_id=115'
p68
aS'https://class.coursera.org/ntumltwo-002/lecture/download.mp4?lecture_id=117'
p69
aS'https://class.coursera.org/ntumltwo-002/lecture/download.mp4?lecture_id=119'
p70
aS'https://class.coursera.org/ntumltwo-002/lecture/download.mp4?lecture_id=121'
p71
aS'https://d396qusza40orc.cloudfront.net/ntumltwo/lecture_slides/215_handout.pdf'
p72
aS'https://class.coursera.org/ntumltwo-002/lecture/download.mp4?lecture_id=123'
p73
aS'https://class.coursera.org/ntumltwo-002/lecture/download.mp4?lecture_id=125'
p74
aS'https://class.coursera.org/ntumltwo-002/lecture/download.mp4?lecture_id=127'
p75
aS'https://class.coursera.org/ntumltwo-002/lecture/download.mp4?lecture_id=129'
p76
aS'https://d396qusza40orc.cloudfront.net/ntumltwo/lecture_slides/216_handout.pdf'
p77
aS'https://class.coursera.org/ntumltwo-002/lecture/download.mp4?lecture_id=131'
p78
aS'https://class.coursera.org/ntumltwo-002/lecture/download.mp4?lecture_id=133'
p79
aS'https://class.coursera.org/ntumltwo-002/lecture/download.mp4?lecture_id=135'
p80
aS'https://class.coursera.org/ntumltwo-002/lecture/download.mp4?lecture_id=137'
p81
a.